; Function Attrs: mustprogress nofree norecurse nosync nounwind willreturn memory(read, inaccessiblemem: none) uwtable
define hidden noundef ptr @_ZNK25G1CollectionSetCandidates18get_short_type_strEPK12G1HeapRegion(ptr nocapture noundef nonnull readonly align 8 dereferenceable(72) %0, ptr nocapture noundef readonly %1) local_unnamed_addr #5 align 2 {
  %3 = getelementptr inbounds i8, ptr %0, i64 56
  %4 = load ptr, ptr %3, align 8
  %5 = getelementptr inbounds i8, ptr %1, i64 48
  %6 = load i32, ptr %5, align 8
  %7 = zext i32 %6 to i64
  %8 = getelementptr inbounds i8, ptr %4, i64 %7
  %9 = load i8, ptr %8, align 1
  %10 = zext i8 %9 to i64
  %11 = getelementptr inbounds [4 x ptr], ptr @_ZZNK25G1CollectionSetCandidates18get_short_type_strEPK12G1HeapRegionE12type_strings, i64 0, i64 %10
  %12 = load ptr, ptr %11, align 8
  ret ptr %12
}